; ModuleID = '7/30.c'
source_filename = "7/30.c"
target datalayout = "e-m:e-p270:32:32-p271:32:32-p272:64:64-i64:64-f80:128-n8:16:32:64-S128"
target triple = "x86_64-pc-linux-gnu"

@.str = private unnamed_addr constant [3 x i8] c"%c\00", align 1
@.str.1 = private unnamed_addr constant [3 x i8] c"%s\00", align 1
@.str.2 = private unnamed_addr constant [2 x i8] c"\0A\00", align 1

; Function Attrs: noinline nounwind uwtable
define dso_local i32 @main() #0 {
  %1 = alloca i32, align 4
  %2 = alloca i32, align 4
  %3 = alloca i32, align 4
  %4 = alloca i32, align 4
  %5 = alloca i32, align 4
  %6 = alloca i32, align 4
  %7 = alloca i32, align 4
  %8 = alloca [256 x i8], align 16
  %9 = alloca [256 x i8], align 16
  %10 = alloca [256 x i8], align 16
  %11 = alloca i32, align 4
  store i32 0, i32* %1, align 4
  store i32 0, i32* %7, align 4
  %12 = getelementptr inbounds [256 x i8], [256 x i8]* %8, i64 0, i64 0
  %13 = call i32 (i8*, ...) bitcast (i32 (...)* @gets to i32 (i8*, ...)*)(i8* %12)
  %14 = getelementptr inbounds [256 x i8], [256 x i8]* %9, i64 0, i64 0
  %15 = call i32 (i8*, ...) bitcast (i32 (...)* @gets to i32 (i8*, ...)*)(i8* %14)
  %16 = getelementptr inbounds [256 x i8], [256 x i8]* %10, i64 0, i64 0
  %17 = call i32 (i8*, ...) bitcast (i32 (...)* @gets to i32 (i8*, ...)*)(i8* %16)
  %18 = getelementptr inbounds [256 x i8], [256 x i8]* %8, i64 0, i64 0
  %19 = call i64 @strlen(i8* %18) #3
  %20 = trunc i64 %19 to i32
  store i32 %20, i32* %2, align 4
  %21 = getelementptr inbounds [256 x i8], [256 x i8]* %9, i64 0, i64 0
  %22 = call i64 @strlen(i8* %21) #3
  %23 = trunc i64 %22 to i32
  store i32 %23, i32* %3, align 4
  store i32 0, i32* %11, align 4
  store i32 0, i32* %4, align 4
  store i32 0, i32* %5, align 4
  br label %24

24:                                               ; preds = %171, %0
  %25 = load i32, i32* %4, align 4
  %26 = load i32, i32* %2, align 4
  %27 = icmp slt i32 %25, %26
  br i1 %27, label %28, label %174

28:                                               ; preds = %24
  %29 = load i32, i32* %11, align 4
  %30 = icmp eq i32 %29, 0
  br i1 %30, label %31, label %87

31:                                               ; preds = %28
  %32 = load i32, i32* %5, align 4
  %33 = sext i32 %32 to i64
  %34 = getelementptr inbounds [256 x i8], [256 x i8]* %9, i64 0, i64 %33
  %35 = load i8, i8* %34, align 1
  %36 = sext i8 %35 to i32
  %37 = load i32, i32* %4, align 4
  %38 = sext i32 %37 to i64
  %39 = getelementptr inbounds [256 x i8], [256 x i8]* %8, i64 0, i64 %38
  %40 = load i8, i8* %39, align 1
  %41 = sext i8 %40 to i32
  %42 = icmp eq i32 %36, %41
  br i1 %42, label %43, label %87

43:                                               ; preds = %31
  %44 = load i32, i32* %3, align 4
  %45 = icmp eq i32 %44, 1
  br i1 %45, label %46, label %81

46:                                               ; preds = %43
  store i32 0, i32* %6, align 4
  br label %47

47:                                               ; preds = %58, %46
  %48 = load i32, i32* %6, align 4
  %49 = load i32, i32* %4, align 4
  %50 = icmp slt i32 %48, %49
  br i1 %50, label %51, label %61

51:                                               ; preds = %47
  %52 = load i32, i32* %6, align 4
  %53 = sext i32 %52 to i64
  %54 = getelementptr inbounds [256 x i8], [256 x i8]* %8, i64 0, i64 %53
  %55 = load i8, i8* %54, align 1
  %56 = sext i8 %55 to i32
  %57 = call i32 (i8*, ...) @printf(i8* getelementptr inbounds ([3 x i8], [3 x i8]* @.str, i64 0, i64 0), i32 %56)
  br label %58

58:                                               ; preds = %51
  %59 = load i32, i32* %6, align 4
  %60 = add nsw i32 %59, 1
  store i32 %60, i32* %6, align 4
  br label %47

61:                                               ; preds = %47
  %62 = getelementptr inbounds [256 x i8], [256 x i8]* %10, i64 0, i64 0
  %63 = call i32 (i8*, ...) @printf(i8* getelementptr inbounds ([3 x i8], [3 x i8]* @.str.1, i64 0, i64 0), i8* %62)
  %64 = load i32, i32* %6, align 4
  %65 = add nsw i32 %64, 1
  store i32 %65, i32* %6, align 4
  br label %66

66:                                               ; preds = %77, %61
  %67 = load i32, i32* %6, align 4
  %68 = load i32, i32* %2, align 4
  %69 = icmp slt i32 %67, %68
  br i1 %69, label %70, label %80

70:                                               ; preds = %66
  %71 = load i32, i32* %6, align 4
  %72 = sext i32 %71 to i64
  %73 = getelementptr inbounds [256 x i8], [256 x i8]* %8, i64 0, i64 %72
  %74 = load i8, i8* %73, align 1
  %75 = sext i8 %74 to i32
  %76 = call i32 (i8*, ...) @printf(i8* getelementptr inbounds ([3 x i8], [3 x i8]* @.str, i64 0, i64 0), i32 %75)
  br label %77

77:                                               ; preds = %70
  %78 = load i32, i32* %6, align 4
  %79 = add nsw i32 %78, 1
  store i32 %79, i32* %6, align 4
  br label %66

80:                                               ; preds = %66
  store i32 1, i32* %7, align 4
  br label %174

81:                                               ; preds = %43
  %82 = load i32, i32* %11, align 4
  %83 = add nsw i32 %82, 1
  store i32 %83, i32* %11, align 4
  %84 = load i32, i32* %5, align 4
  %85 = add nsw i32 %84, 1
  store i32 %85, i32* %5, align 4
  br label %86

86:                                               ; preds = %81
  br label %170

87:                                               ; preds = %31, %28
  %88 = load i32, i32* %11, align 4
  %89 = icmp ne i32 %88, 0
  br i1 %89, label %90, label %103

90:                                               ; preds = %87
  %91 = load i32, i32* %5, align 4
  %92 = sext i32 %91 to i64
  %93 = getelementptr inbounds [256 x i8], [256 x i8]* %9, i64 0, i64 %92
  %94 = load i8, i8* %93, align 1
  %95 = sext i8 %94 to i32
  %96 = load i32, i32* %4, align 4
  %97 = sext i32 %96 to i64
  %98 = getelementptr inbounds [256 x i8], [256 x i8]* %8, i64 0, i64 %97
  %99 = load i8, i8* %98, align 1
  %100 = sext i8 %99 to i32
  %101 = icmp ne i32 %95, %100
  br i1 %101, label %102, label %103

102:                                              ; preds = %90
  store i32 0, i32* %11, align 4
  store i32 0, i32* %5, align 4
  br label %169

103:                                              ; preds = %90, %87
  %104 = load i32, i32* %11, align 4
  %105 = icmp ne i32 %104, 0
  br i1 %105, label %106, label %168

106:                                              ; preds = %103
  %107 = load i32, i32* %5, align 4
  %108 = sext i32 %107 to i64
  %109 = getelementptr inbounds [256 x i8], [256 x i8]* %9, i64 0, i64 %108
  %110 = load i8, i8* %109, align 1
  %111 = sext i8 %110 to i32
  %112 = load i32, i32* %4, align 4
  %113 = sext i32 %112 to i64
  %114 = getelementptr inbounds [256 x i8], [256 x i8]* %8, i64 0, i64 %113
  %115 = load i8, i8* %114, align 1
  %116 = sext i8 %115 to i32
  %117 = icmp eq i32 %111, %116
  br i1 %117, label %118, label %168

118:                                              ; preds = %106
  %119 = load i32, i32* %5, align 4
  %120 = load i32, i32* %3, align 4
  %121 = sub nsw i32 %120, 1
  %122 = icmp eq i32 %119, %121
  br i1 %122, label %123, label %162

123:                                              ; preds = %118
  store i32 0, i32* %6, align 4
  br label %124

124:                                              ; preds = %137, %123
  %125 = load i32, i32* %6, align 4
  %126 = load i32, i32* %4, align 4
  %127 = load i32, i32* %5, align 4
  %128 = sub nsw i32 %126, %127
  %129 = icmp slt i32 %125, %128
  br i1 %129, label %130, label %140

130:                                              ; preds = %124
  %131 = load i32, i32* %6, align 4
  %132 = sext i32 %131 to i64
  %133 = getelementptr inbounds [256 x i8], [256 x i8]* %8, i64 0, i64 %132
  %134 = load i8, i8* %133, align 1
  %135 = sext i8 %134 to i32
  %136 = call i32 (i8*, ...) @printf(i8* getelementptr inbounds ([3 x i8], [3 x i8]* @.str, i64 0, i64 0), i32 %135)
  br label %137

137:                                              ; preds = %130
  %138 = load i32, i32* %6, align 4
  %139 = add nsw i32 %138, 1
  store i32 %139, i32* %6, align 4
  br label %124

140:                                              ; preds = %124
  %141 = getelementptr inbounds [256 x i8], [256 x i8]* %10, i64 0, i64 0
  %142 = call i32 (i8*, ...) @printf(i8* getelementptr inbounds ([3 x i8], [3 x i8]* @.str.1, i64 0, i64 0), i8* %141)
  %143 = load i32, i32* %6, align 4
  %144 = load i32, i32* %3, align 4
  %145 = add nsw i32 %143, %144
  store i32 %145, i32* %6, align 4
  br label %146

146:                                              ; preds = %157, %140
  %147 = load i32, i32* %6, align 4
  %148 = load i32, i32* %2, align 4
  %149 = icmp slt i32 %147, %148
  br i1 %149, label %150, label %160

150:                                              ; preds = %146
  %151 = load i32, i32* %6, align 4
  %152 = sext i32 %151 to i64
  %153 = getelementptr inbounds [256 x i8], [256 x i8]* %8, i64 0, i64 %152
  %154 = load i8, i8* %153, align 1
  %155 = sext i8 %154 to i32
  %156 = call i32 (i8*, ...) @printf(i8* getelementptr inbounds ([3 x i8], [3 x i8]* @.str, i64 0, i64 0), i32 %155)
  br label %157

157:                                              ; preds = %150
  %158 = load i32, i32* %6, align 4
  %159 = add nsw i32 %158, 1
  store i32 %159, i32* %6, align 4
  br label %146

160:                                              ; preds = %146
  %161 = call i32 (i8*, ...) @printf(i8* getelementptr inbounds ([2 x i8], [2 x i8]* @.str.2, i64 0, i64 0))
  store i32 1, i32* %7, align 4
  br label %174

162:                                              ; preds = %118
  %163 = load i32, i32* %11, align 4
  %164 = add nsw i32 %163, 1
  store i32 %164, i32* %11, align 4
  %165 = load i32, i32* %5, align 4
  %166 = add nsw i32 %165, 1
  store i32 %166, i32* %5, align 4
  br label %167

167:                                              ; preds = %162
  br label %168

168:                                              ; preds = %167, %106, %103
  br label %169

169:                                              ; preds = %168, %102
  br label %170

170:                                              ; preds = %169, %86
  br label %171

171:                                              ; preds = %170
  %172 = load i32, i32* %4, align 4
  %173 = add nsw i32 %172, 1
  store i32 %173, i32* %4, align 4
  br label %24

174:                                              ; preds = %160, %80, %24
  %175 = load i32, i32* %7, align 4
  %176 = icmp eq i32 %175, 0
  br i1 %176, label %177, label %180

177:                                              ; preds = %174
  %178 = getelementptr inbounds [256 x i8], [256 x i8]* %8, i64 0, i64 0
  %179 = call i32 @puts(i8* %178)
  br label %180

180:                                              ; preds = %177, %174
  ret i32 0
}

declare dso_local i32 @gets(...) #1

; Function Attrs: nounwind readonly
declare dso_local i64 @strlen(i8*) #2

declare dso_local i32 @printf(i8*, ...) #1

declare dso_local i32 @puts(i8*) #1


!llvm.module.flags = !{!0}
!llvm.ident = !{!1}

!0 = !{i32 1, !"wchar_size", i32 4}
!1 = !{!"clang version 10.0.0-4ubuntu1 "}
